; Function Attrs: mustprogress norecurse uwtable
define internal fastcc noundef zeroext i1 @_ZL18TestCBBFinishChildv() unnamed_addr #0 personality ptr @__gxx_personality_v0 {
  %1 = alloca %struct.cbb_st, align 8
  %2 = alloca %struct.cbb_st, align 8
  %3 = alloca ptr, align 8
  %4 = alloca i64, align 8
  call void @llvm.lifetime.start.p0(i64 32, ptr nonnull %1) #12
  call void @llvm.lifetime.start.p0(i64 32, ptr nonnull %2) #12
  call void @llvm.lifetime.start.p0(i64 8, ptr nonnull %3) #12
  call void @llvm.lifetime.start.p0(i64 8, ptr nonnull %4) #12
  %5 = call i32 @CBB_init(ptr noundef nonnull %1, i64 noundef 16)
  %.not = icmp eq i32 %5, 0
  br i1 %.not, label %_ZNSt10unique_ptrIh11OpenSSLFreeIhEED2Ev.exit, label %6

6:                                                ; preds = %0
  %7 = call i32 @CBB_add_u8_length_prefixed(ptr noundef nonnull %1, ptr noundef nonnull %2)
  %.not1 = icmp eq i32 %7, 0
  br i1 %.not1, label %12, label %8

8:                                                ; preds = %6
  %9 = call i32 @CBB_finish(ptr noundef nonnull %2, ptr noundef nonnull %3, ptr noundef nonnull %4)
  %.not2 = icmp eq i32 %9, 0
  br i1 %.not2, label %10, label %12

10:                                               ; preds = %8
  %11 = call i32 @CBB_finish(ptr noundef nonnull %1, ptr noundef nonnull %3, ptr noundef nonnull %4)
  %.not3 = icmp eq i32 %11, 0
  br i1 %.not3, label %12, label %13

12:                                               ; preds = %10, %8, %6
  call void @CBB_cleanup(ptr noundef nonnull %1)
  br label %_ZNSt10unique_ptrIh11OpenSSLFreeIhEED2Ev.exit

13:                                               ; preds = %10
  %14 = load ptr, ptr %3, align 8, !tbaa !11
  %15 = load i64, ptr %4, align 8, !tbaa !14
  %16 = icmp eq i64 %15, 1
  br i1 %16, label %.thread, label %19

.thread:                                          ; preds = %13
  %17 = load i8, ptr %14, align 1, !tbaa !10
  %18 = icmp eq i8 %17, 0
  br label %20

19:                                               ; preds = %13
  %.not.i = icmp eq ptr %14, null
  br i1 %.not.i, label %_ZNSt10unique_ptrIh11OpenSSLFreeIhEED2Ev.exit, label %20

20:                                               ; preds = %.thread, %19
  %21 = phi i1 [ %18, %.thread ], [ false, %19 ]
  call void @free(ptr noundef nonnull %14) #12
  br label %_ZNSt10unique_ptrIh11OpenSSLFreeIhEED2Ev.exit

_ZNSt10unique_ptrIh11OpenSSLFreeIhEED2Ev.exit:    ; preds = %20, %19, %0, %12
  %.0 = phi i1 [ false, %12 ], [ false, %0 ], [ false, %19 ], [ %21, %20 ]
  call void @llvm.lifetime.end.p0(i64 8, ptr nonnull %4) #12
  call void @llvm.lifetime.end.p0(i64 8, ptr nonnull %3) #12
  call void @llvm.lifetime.end.p0(i64 32, ptr nonnull %2) #12
  call void @llvm.lifetime.end.p0(i64 32, ptr nonnull %1) #12
  ret i1 %.0
}